target datalayout = "e-m:e-p270:32:32-p271:32:32-p272:64:64-i64:64-i128:128-f80:128-n8:16:32:64-S128"
target triple = "x86_64-pc-linux-gnu"

%"class.icu_77::ConstrainedFieldPosition" = type <{ i64, i32, i32, i32, i32, i8, [7 x i8] }>
%"struct.icu_77::UConstrainedFieldPositionImpl" = type { %"class.icu_77::IcuCApiHelper", [4 x i8], %"class.icu_77::ConstrainedFieldPosition" }
%"class.icu_77::IcuCApiHelper" = type { i32 }

; Function Attrs: inlinehint mustprogress nounwind uwtable
define linkonce_odr noundef i64 @_ZNK6icu_7724ConstrainedFieldPosition24getInt64IterationContextEv(ptr noundef nonnull align 8 dereferenceable(25) %0) #2 comdat align 2 {
  %2 = alloca ptr, align 8
  store ptr %0, ptr %2, align 8, !tbaa !23
  %3 = load ptr, ptr %2, align 8
  %4 = getelementptr inbounds nuw %"class.icu_77::ConstrainedFieldPosition", ptr %3, i32 0, i32 0
  %5 = load i64, ptr %4, align 8, !tbaa !25
  ret i64 %5
}

; Function Attrs: inlinehint mustprogress nounwind uwtable
define internal noundef signext i8 @_ZL9U_FAILURE10UErrorCode(i32 noundef %0) #2 {
  %2 = alloca i32, align 4
  store i32 %0, ptr %2, align 4, !tbaa !15
  %3 = load i32, ptr %2, align 4, !tbaa !15
  %4 = icmp sgt i32 %3, 0
  %5 = zext i1 %4 to i8
  ret i8 %5
}

; Function Attrs: mustprogress nounwind uwtable
define linkonce_odr noundef ptr @_ZN6icu_7713IcuCApiHelperI25UConstrainedFieldPositionNS_29UConstrainedFieldPositionImplELi1430472192EE8validateEPKS1_R10UErrorCode(ptr noundef %0, ptr noundef nonnull align 4 dereferenceable(4) %1) #0 comdat align 2 {
  %3 = alloca ptr, align 8
  %4 = alloca ptr, align 8
  %5 = alloca ptr, align 8
  %6 = alloca ptr, align 8
  %7 = alloca i32, align 4
  store ptr %0, ptr %4, align 8, !tbaa !38
  store ptr %1, ptr %5, align 8, !tbaa !22
  %8 = load ptr, ptr %5, align 8, !tbaa !22
  %9 = load i32, ptr %8, align 4, !tbaa !15
  %10 = call noundef signext i8 @_ZL9U_FAILURE10UErrorCode(i32 noundef %9)
  %11 = icmp ne i8 %10, 0
  br i1 %11, label %12, label %13

12:                                               ; preds = %2
  store ptr null, ptr %3, align 8
  br label %29

13:                                               ; preds = %2
  %14 = load ptr, ptr %4, align 8, !tbaa !38
  %15 = icmp eq ptr %14, null
  br i1 %15, label %16, label %18

16:                                               ; preds = %13
  %17 = load ptr, ptr %5, align 8, !tbaa !22
  store i32 1, ptr %17, align 4, !tbaa !15
  store ptr null, ptr %3, align 8
  br label %29

18:                                               ; preds = %13
  call void @llvm.lifetime.start.p0(i64 8, ptr %6) #13
  %19 = load ptr, ptr %4, align 8, !tbaa !38
  store ptr %19, ptr %6, align 8, !tbaa !34
  %20 = load ptr, ptr %6, align 8, !tbaa !34
  %21 = getelementptr inbounds nuw %"class.icu_77::IcuCApiHelper", ptr %20, i32 0, i32 0
  %22 = load i32, ptr %21, align 4, !tbaa !40
  %23 = icmp ne i32 %22, 1430472192
  br i1 %23, label %24, label %26

24:                                               ; preds = %18
  %25 = load ptr, ptr %5, align 8, !tbaa !22
  store i32 3, ptr %25, align 4, !tbaa !15
  store ptr null, ptr %3, align 8
  store i32 1, ptr %7, align 4
  br label %28

26:                                               ; preds = %18
  %27 = load ptr, ptr %6, align 8, !tbaa !34
  store ptr %27, ptr %3, align 8
  store i32 1, ptr %7, align 4
  br label %28

28:                                               ; preds = %26, %24
  call void @llvm.lifetime.end.p0(i64 8, ptr %6) #13
  br label %29

29:                                               ; preds = %28, %16, %12
  %30 = load ptr, ptr %3, align 8
  ret ptr %30
}

; Function Attrs: mustprogress uwtable
define i64 @ucfpos_getInt64IterationContext_77(ptr noundef %0, ptr noundef %1) #1 {
  %3 = alloca i64, align 8
  %4 = alloca ptr, align 8
  %5 = alloca ptr, align 8
  %6 = alloca ptr, align 8
  %7 = alloca i32, align 4
  store ptr %0, ptr %4, align 8, !tbaa !38
  store ptr %1, ptr %5, align 8, !tbaa !22
  call void @llvm.lifetime.start.p0(i64 8, ptr %6) #13
  %8 = load ptr, ptr %4, align 8, !tbaa !38
  %9 = load ptr, ptr %5, align 8, !tbaa !22
  %10 = call noundef ptr @_ZN6icu_7713IcuCApiHelperI25UConstrainedFieldPositionNS_29UConstrainedFieldPositionImplELi1430472192EE8validateEPKS1_R10UErrorCode(ptr noundef %8, ptr noundef nonnull align 4 dereferenceable(4) %9)
  store ptr %10, ptr %6, align 8, !tbaa !34
  %11 = load ptr, ptr %5, align 8, !tbaa !22
  %12 = load i32, ptr %11, align 4, !tbaa !15
  %13 = call noundef signext i8 @_ZL9U_FAILURE10UErrorCode(i32 noundef %12)
  %14 = icmp ne i8 %13, 0
  br i1 %14, label %15, label %16

15:                                               ; preds = %2
  store i64 0, ptr %3, align 8
  store i32 1, ptr %7, align 4
  br label %20

16:                                               ; preds = %2
  %17 = load ptr, ptr %6, align 8, !tbaa !34
  %18 = getelementptr inbounds nuw %"struct.icu_77::UConstrainedFieldPositionImpl", ptr %17, i32 0, i32 2
  %19 = call noundef i64 @_ZNK6icu_7724ConstrainedFieldPosition24getInt64IterationContextEv(ptr noundef nonnull align 8 dereferenceable(25) %18)
  store i64 %19, ptr %3, align 8
  store i32 1, ptr %7, align 4
  br label %20

20:                                               ; preds = %16, %15
  call void @llvm.lifetime.end.p0(i64 8, ptr %6) #13
  %21 = load i64, ptr %3, align 8
  ret i64 %21
}